target datalayout = "e-m:e-p270:32:32-p271:32:32-p272:64:64-i64:64-i128:128-f80:128-n8:16:32:64-S128"
target triple = "x86_64-pc-linux-gnu"

%"class.glslang::HlslGrammar" = type { %"class.glslang::HlslTokenStream.base", ptr, ptr, i8, ptr }
%"class.glslang::HlslTokenStream.base" = type <{ ptr, %"struct.glslang::HlslToken", ptr, %"class.glslang::TVector", %"class.glslang::TVector.0", %"class.glslang::TVector.4", [2 x %"struct.glslang::HlslToken"], i32, [4 x i8], [2 x %"struct.glslang::HlslToken"], i32 }>
%"struct.glslang::HlslToken" = type { %"struct.glslang::TSourceLoc", i32, %union.anon }
%"struct.glslang::TSourceLoc" = type { ptr, i32, i32, i32 }
%union.anon = type { ptr }
%"class.glslang::TVector" = type { %"class.std::vector" }
%"class.std::vector" = type { %"struct.std::_Vector_base" }
%"struct.std::_Vector_base" = type { %"struct.std::_Vector_base<const glslang::TVector<glslang::HlslToken> *, glslang::pool_allocator<const glslang::TVector<glslang::HlslToken> *>>::_Vector_impl" }
%"struct.std::_Vector_base<const glslang::TVector<glslang::HlslToken> *, glslang::pool_allocator<const glslang::TVector<glslang::HlslToken> *>>::_Vector_impl" = type { %"class.glslang::pool_allocator", %"struct.std::_Vector_base<const glslang::TVector<glslang::HlslToken> *, glslang::pool_allocator<const glslang::TVector<glslang::HlslToken> *>>::_Vector_impl_data" }
%"class.glslang::pool_allocator" = type { ptr }
%"struct.std::_Vector_base<const glslang::TVector<glslang::HlslToken> *, glslang::pool_allocator<const glslang::TVector<glslang::HlslToken> *>>::_Vector_impl_data" = type { ptr, ptr, ptr }
%"class.glslang::TVector.0" = type { %"class.std::vector.1" }
%"class.std::vector.1" = type { %"struct.std::_Vector_base.2" }
%"struct.std::_Vector_base.2" = type { %"struct.std::_Vector_base<int, glslang::pool_allocator<int>>::_Vector_impl" }
%"struct.std::_Vector_base<int, glslang::pool_allocator<int>>::_Vector_impl" = type { %"class.glslang::pool_allocator.3", %"struct.std::_Vector_base<int, glslang::pool_allocator<int>>::_Vector_impl_data" }
%"class.glslang::pool_allocator.3" = type { ptr }
%"struct.std::_Vector_base<int, glslang::pool_allocator<int>>::_Vector_impl_data" = type { ptr, ptr, ptr }
%"class.glslang::TVector.4" = type { %"class.std::vector.5" }
%"class.std::vector.5" = type { %"struct.std::_Vector_base.6" }
%"struct.std::_Vector_base.6" = type { %"struct.std::_Vector_base<glslang::HlslToken, glslang::pool_allocator<glslang::HlslToken>>::_Vector_impl" }
%"struct.std::_Vector_base<glslang::HlslToken, glslang::pool_allocator<glslang::HlslToken>>::_Vector_impl" = type { %"class.glslang::pool_allocator.7", %"struct.std::_Vector_base<glslang::HlslToken, glslang::pool_allocator<glslang::HlslToken>>::_Vector_impl_data" }
%"class.glslang::pool_allocator.7" = type { ptr }
%"struct.std::_Vector_base<glslang::HlslToken, glslang::pool_allocator<glslang::HlslToken>>::_Vector_impl_data" = type { ptr, ptr, ptr }
%"class.glslang::HlslTokenStream" = type <{ ptr, %"struct.glslang::HlslToken", ptr, %"class.glslang::TVector", %"class.glslang::TVector.0", %"class.glslang::TVector.4", [2 x %"struct.glslang::HlslToken"], i32, [4 x i8], [2 x %"struct.glslang::HlslToken"], i32, [4 x i8] }>
%"class.glslang::TQualifier" = type <{ ptr, i64, i8, [3 x i8], i32, i32, i64, i64, i8, i8, i8, i8, i8, [3 x i8], i32, i8, i8, i8, i8, i32, ptr, i8, i8, [6 x i8] }>

@.str = private unnamed_addr constant [9 x i8] c"Expected\00", align 1
@.str.1 = private unnamed_addr constant [1 x i8] zeroinitializer, align 1
@.str.47 = private unnamed_addr constant [20 x i8] c"right angle bracket\00", align 1
@.str.49 = private unnamed_addr constant [19 x i8] c"stream output type\00", align 1

; Function Attrs: mustprogress nounwind uwtable
define void @_ZN7glslang11HlslGrammar8expectedEPKc(ptr noundef nonnull align 8 dereferenceable(360) %0, ptr noundef %1) #0 align 2 {
  %3 = alloca ptr, align 8
  %4 = alloca ptr, align 8
  store ptr %0, ptr %3, align 8
  store ptr %1, ptr %4, align 8
  %5 = load ptr, ptr %3, align 8
  %6 = getelementptr inbounds %"class.glslang::HlslGrammar", ptr %5, i32 0, i32 1
  %7 = load ptr, ptr %6, align 8
  %8 = getelementptr inbounds %"class.glslang::HlslTokenStream", ptr %5, i32 0, i32 1
  %9 = getelementptr inbounds %"struct.glslang::HlslToken", ptr %8, i32 0, i32 0
  %10 = load ptr, ptr %4, align 8
  %11 = load ptr, ptr %7, align 8
  %12 = getelementptr inbounds ptr, ptr %11, i64 43
  %13 = load ptr, ptr %12, align 8
  call void (ptr, ptr, ptr, ptr, ptr, ...) %13(ptr noundef nonnull align 8 dereferenceable(1280) %7, ptr noundef nonnull align 8 dereferenceable(24) %9, ptr noundef @.str, ptr noundef %10, ptr noundef @.str.1)
  ret void
}

; Function Attrs: mustprogress nounwind uwtable
define noundef zeroext i1 @_ZN7glslang11HlslGrammar10acceptTypeERNS_5TTypeE(ptr noundef nonnull align 8 dereferenceable(360) %0, ptr noundef nonnull align 8 dereferenceable(152) %1) #0 align 2 {
  %3 = alloca ptr, align 8
  %4 = alloca ptr, align 8
  %5 = alloca ptr, align 8
  store ptr %0, ptr %3, align 8
  store ptr %1, ptr %4, align 8
  %6 = load ptr, ptr %3, align 8
  store ptr null, ptr %5, align 8
  %7 = load ptr, ptr %4, align 8
  %8 = call noundef zeroext i1 @_ZN7glslang11HlslGrammar10acceptTypeERNS_5TTypeERP11TIntermNode(ptr noundef nonnull align 8 dereferenceable(360) %6, ptr noundef nonnull align 8 dereferenceable(152) %7, ptr noundef nonnull align 8 dereferenceable(8) %5)
  ret i1 %8
}

; Function Attrs: mustprogress nounwind uwtable
define noundef zeroext i1 @_ZN7glslang11HlslGrammar29acceptOutputPrimitiveGeometryERNS_15TLayoutGeometryE(ptr noundef nonnull align 8 dereferenceable(360) %0, ptr noundef nonnull align 4 dereferenceable(4) %1) #0 align 2 {
  %3 = alloca i1, align 1
  %4 = alloca ptr, align 8
  %5 = alloca ptr, align 8
  %6 = alloca i32, align 4
  store ptr %0, ptr %4, align 8
  store ptr %1, ptr %5, align 8
  %7 = load ptr, ptr %4, align 8
  %8 = call noundef i32 @_ZNK7glslang15HlslTokenStream4peekEv(ptr noundef nonnull align 8 dereferenceable(324) %7)
  store i32 %8, ptr %6, align 4
  %9 = load i32, ptr %6, align 4
  switch i32 %9, label %16 [
    i32 30, label %10
    i32 31, label %12
    i32 32, label %14
  ]

10:                                               ; preds = %2
  %11 = load ptr, ptr %5, align 8
  store i32 1, ptr %11, align 4
  br label %17

12:                                               ; preds = %2
  %13 = load ptr, ptr %5, align 8
  store i32 4, ptr %13, align 4
  br label %17

14:                                               ; preds = %2
  %15 = load ptr, ptr %5, align 8
  store i32 7, ptr %15, align 4
  br label %17

16:                                               ; preds = %2
  store i1 false, ptr %3, align 1
  br label %18

17:                                               ; preds = %14, %12, %10
  call void @_ZN7glslang15HlslTokenStream12advanceTokenEv(ptr noundef nonnull align 8 dereferenceable(324) %7)
  store i1 true, ptr %3, align 1
  br label %18

18:                                               ; preds = %17, %16
  %19 = load i1, ptr %3, align 1
  ret i1 %19
}

; Function Attrs: mustprogress nounwind uwtable
define noundef zeroext i1 @_ZN7glslang11HlslGrammar27acceptStreamOutTemplateTypeERNS_5TTypeERNS_15TLayoutGeometryE(ptr noundef nonnull align 8 dereferenceable(360) %0, ptr noundef nonnull align 8 dereferenceable(152) %1, ptr noundef nonnull align 4 dereferenceable(4) %2) #0 align 2 {
  %4 = alloca i1, align 1
  %5 = alloca ptr, align 8
  %6 = alloca ptr, align 8
  %7 = alloca ptr, align 8
  store ptr %0, ptr %5, align 8
  store ptr %1, ptr %6, align 8
  store ptr %2, ptr %7, align 8
  %8 = load ptr, ptr %5, align 8
  %9 = load ptr, ptr %7, align 8
  store i32 0, ptr %9, align 4
  %10 = load ptr, ptr %7, align 8
  %11 = call noundef zeroext i1 @_ZN7glslang11HlslGrammar29acceptOutputPrimitiveGeometryERNS_15TLayoutGeometryE(ptr noundef nonnull align 8 dereferenceable(360) %8, ptr noundef nonnull align 4 dereferenceable(4) %10)
  br i1 %11, label %13, label %12

12:                                               ; preds = %3
  store i1 false, ptr %4, align 1
  br label %42

13:                                               ; preds = %3
  %14 = call noundef zeroext i1 @_ZN7glslang15HlslTokenStream16acceptTokenClassENS_15EHlslTokenClassE(ptr noundef nonnull align 8 dereferenceable(324) %8, i32 noundef 373)
  br i1 %14, label %16, label %15

15:                                               ; preds = %13
  store i1 false, ptr %4, align 1
  br label %42

16:                                               ; preds = %13
  %17 = load ptr, ptr %6, align 8
  %18 = call noundef zeroext i1 @_ZN7glslang11HlslGrammar10acceptTypeERNS_5TTypeE(ptr noundef nonnull align 8 dereferenceable(360) %8, ptr noundef nonnull align 8 dereferenceable(152) %17)
  br i1 %18, label %20, label %19

19:                                               ; preds = %16
  call void @_ZN7glslang11HlslGrammar8expectedEPKc(ptr noundef nonnull align 8 dereferenceable(360) %8, ptr noundef @.str.49)
  store i1 false, ptr %4, align 1
  br label %42

20:                                               ; preds = %16
  %21 = load ptr, ptr %6, align 8
  %22 = load ptr, ptr %21, align 8
  %23 = getelementptr inbounds ptr, ptr %22, i64 10
  %24 = load ptr, ptr %23, align 8
  %25 = call noundef nonnull align 8 dereferenceable(80) ptr %24(ptr noundef nonnull align 8 dereferenceable(152) %21)
  %26 = getelementptr inbounds %"class.glslang::TQualifier", ptr %25, i32 0, i32 1
  %27 = load i64, ptr %26, align 8
  %28 = and i64 %27, -128
  %29 = or i64 %28, 17
  store i64 %29, ptr %26, align 8
  %30 = load ptr, ptr %6, align 8
  %31 = load ptr, ptr %30, align 8
  %32 = getelementptr inbounds ptr, ptr %31, i64 10
  %33 = load ptr, ptr %32, align 8
  %34 = call noundef nonnull align 8 dereferenceable(80) ptr %33(ptr noundef nonnull align 8 dereferenceable(152) %30)
  %35 = getelementptr inbounds %"class.glslang::TQualifier", ptr %34, i32 0, i32 1
  %36 = load i64, ptr %35, align 8
  %37 = and i64 %36, -65409
  %38 = or i64 %37, 17920
  store i64 %38, ptr %35, align 8
  %39 = call noundef zeroext i1 @_ZN7glslang15HlslTokenStream16acceptTokenClassENS_15EHlslTokenClassE(ptr noundef nonnull align 8 dereferenceable(324) %8, i32 noundef 374)
  br i1 %39, label %41, label %40

40:                                               ; preds = %20
  call void @_ZN7glslang11HlslGrammar8expectedEPKc(ptr noundef nonnull align 8 dereferenceable(360) %8, ptr noundef @.str.47)
  store i1 false, ptr %4, align 1
  br label %42

41:                                               ; preds = %20
  store i1 true, ptr %4, align 1
  br label %42

42:                                               ; preds = %41, %40, %19, %15, %12
  %43 = load i1, ptr %4, align 1
  ret i1 %43
}